Certificate Request:
    Data:
        Version: 0 (0x0)
        Subject: CN=localhost
        Subject Public Key Info:
            Public Key Algorithm: rsaEncryption
                Public-Key: (4096 bit)
                Modulus:
                    00:bc:a5:a3:e3:7f:57:73:e5:7f:3c:46:ea:9b:f8:
                    8e:2b:42:ab:91:5e:72:7e:43:1c:cb:6b:bd:91:bb:
                    7e:96:20:bc:5d:be:f7:d7:86:1d:d8:85:24:ea:e2:
                    65:6d:75:ca:b3:67:e4:07:28:7e:c0:47:2f:5a:c0:
                    68:3a:b5:3c:da:ec:a6:3a:a4:11:1e:db:e3:77:3d:
                    8a:d3:14:c0:26:3f:e0:74:09:7e:95:95:45:a6:58:
                    a5:15:f2:f4:f5:56:38:78:af:62:94:04:79:c3:7e:
                    1e:45:67:5a:91:77:26:f0:a3:79:39:24:06:45:16:
                    13:d2:18:19:33:68:ff:40:a8:a5:10:a4:41:01:af:
                    35:90:50:ec:11:83:84:fa:cb:08:fd:d3:a0:31:0a:
                    12:05:59:49:4f:c1:29:a9:b5:dd:45:d5:e3:1e:ef:
                    74:13:fc:96:68:0d:55:71:9d:7e:2d:3b:b0:95:f8:
                    1d:f1:33:2b:7a:52:0c:14:4f:6d:64:83:3c:82:bd:
                    37:7e:72:69:d0:04:8e:bf:94:b0:aa:f7:ac:57:cc:
                    a2:f0:96:b0:a6:19:8a:2d:79:ea:b1:0e:6a:ce:d5:
                    64:cb:95:d7:27:9a:34:a0:fa:13:8a:f4:73:5c:44:
                    55:7a:82:7e:97:d3:ac:f3:28:96:0f:64:a5:d1:99:
                    74:e0:d3:0b:fe:30:03:fc:38:47:b6:dd:0f:3e:88:
                    7a:ff:3c:ef:f6:ee:a2:de:aa:df:d9:7d:b0:4d:51:
                    47:ff:a7:6a:5a:7d:df:99:b3:6e:04:b0:7e:46:80:
                    80:6f:c8:ed:d0:a2:d5:13:62:3b:55:d2:9f:c5:f1:
                    8b:81:8a:6e:ad:a0:b3:1c:64:8b:e7:d9:be:e0:6c:
                    2f:e3:12:b6:59:48:da:7f:34:1b:61:9f:0e:35:92:
                    3b:52:6d:73:95:3d:4a:44:63:b0:71:61:20:8d:5c:
                    91:c5:6e:d6:b0:db:e5:37:19:d3:9f:a3:a3:12:b8:
                    9b:84:9b:84:dc:ec:1d:fc:70:fc:8b:ac:bc:54:26:
                    93:df:b8:c7:0a:be:ed:29:a7:f9:5d:c0:8b:98:4c:
                    49:fe:58:4b:0a:f1:b3:05:0a:97:46:0e:a1:f4:4f:
                    d3:45:9d:67:07:90:9b:09:0c:4d:19:fa:96:bb:19:
                    5d:4b:05:b2:d7:b6:18:9a:eb:27:4e:07:75:6b:fa:
                    d8:a1:38:62:ab:81:06:ce:a6:ac:27:91:df:46:82:
                    a4:6b:0e:96:2c:4f:14:d8:a2:d4:49:d4:20:8d:d6:
                    fa:26:ec:f8:ad:f7:00:79:25:9c:1a:76:d2:ff:7a:
                    9b:96:6e:96:c8:45:37:75:85:56:06:a1:dc:58:04:
                    ef:9a:8d
                Exponent: 65537 (0x10001)
        Attributes:
            a0:00
    Signature Algorithm: sha256WithRSAEncryption
         1e:4c:7b:d2:b6:e2:e0:a4:37:dd:10:e8:22:40:6b:7a:0f:94:
         35:98:a2:f9:4e:ac:22:30:28:0a:b3:22:54:fd:1c:87:ec:44:
         66:a6:b8:d7:52:1a:a5:a7:21:98:34:88:cb:b1:c1:fc:ba:db:
         4a:11:df:b9:53:92:5f:fe:77:60:27:f3:6b:ae:90:2b:aa:6a:
         48:1d:18:64:11:0e:8d:aa:1f:3a:58:af:1e:b0:2b:c3:f8:57:
         b1:d9:f4:fe:e9:a1:b9:ff:70:1e:57:19:c5:79:94:62:f5:c3:
         e0:5a:a6:e9:d5:76:87:6a:11:4b:21:83:c8:56:27:ea:dd:6e:
         b5:17:b7:fe:fc:f3:d1:be:4b:1c:59:e9:05:c9:40:b0:de:2d:
         31:02:a1:53:c1:1d:f4:19:7c:f5:52:64:01:94:51:88:9d:38:
         a5:c9:0a:ac:ac:4a:ae:71:4e:08:aa:0a:94:2b:d6:6a:ea:dc:
         c4:01:b9:e9:7f:d4:7b:70:bb:56:49:fa:c2:c4:ec:b9:6b:27:
         29:6c:60:4d:72:20:14:52:56:a5:0e:9f:e3:37:59:d4:36:f9:
         c4:0e:ca:eb:0a:05:dc:97:60:8b:a0:6f:23:14:15:02:b8:ec:
         67:8a:92:80:95:45:ee:d0:cb:a7:45:6f:95:f8:0a:73:58:e4:
         7f:4a:16:af:63:e9:07:6f:8b:47:3a:9c:5f:01:7e:ff:57:1c:
         4d:d4:75:ab:57:b0:75:c5:7c:b1:01:fb:af:64:be:d8:05:9b:
         4d:b0:e7:76:9a:91:63:c4:b6:dc:1e:43:11:e6:8a:76:33:a0:
         f2:dd:79:db:0d:4d:ea:91:2b:70:7b:4f:b7:33:83:c4:6d:68:
         87:7b:aa:ab:9e:60:2e:1b:76:86:61:56:0e:e2:67:81:07:c3:
         dd:c1:bc:5d:a5:20:3b:e7:a9:ab:04:64:3d:0d:79:56:dc:d9:
         14:12:58:b7:c5:1c:ce:01:aa:a2:28:ff:ed:5d:32:37:22:e9:
         35:da:fd:d0:c8:f3:26:8a:ad:5a:79:cb:57:1d:97:b2:04:e7:
         d1:61:69:8a:69:b2:8e:27:b7:8d:d5:81:85:17:e0:74:be:97:
         68:82:50:51:70:56:98:97:83:b9:e2:e0:fc:1c:67:47:cf:9d:
         fc:5c:2a:5b:c1:8f:35:ac:f1:68:c9:99:60:02:44:7c:06:a3:
         0f:74:95:a7:a7:e2:b8:36:0e:6e:54:d1:d2:ec:ff:6b:de:76:
         43:c5:f8:da:ad:98:88:9a:f8:3c:60:fd:76:92:bc:4e:54:ba:
         b6:6f:2c:a6:52:3d:44:16:48:3f:49:d9:2b:ef:49:51:64:0d:
         bc:6b:a1:a5:04:18:dc:6d
-----BEGIN CERTIFICATE REQUEST-----
MIIEWTCCAkECAQAwFDESMBAGA1UEAwwJbG9jYWxob3N0MIICIjANBgkqhkiG9w0B
AQEFAAOCAg8AMIICCgKCAgEAvKWj439Xc+V/PEbqm/iOK0KrkV5yfkMcy2u9kbt+
liC8Xb7314Yd2IUk6uJlbXXKs2fkByh+wEcvWsBoOrU82uymOqQRHtvjdz2K0xTA
Jj/gdAl+lZVFplilFfL09VY4eK9ilAR5w34eRWdakXcm8KN5OSQGRRYT0hgZM2j/
QKilEKRBAa81kFDsEYOE+ssI/dOgMQoSBVlJT8EpqbXdRdXjHu90E/yWaA1VcZ1+
LTuwlfgd8TMrelIMFE9tZIM8gr03fnJp0ASOv5SwqvesV8yi8JawphmKLXnqsQ5q
ztVky5XXJ5o0oPoTivRzXERVeoJ+l9Os8yiWD2Sl0Zl04NML/jAD/DhHtt0PPoh6
/zzv9u6i3qrf2X2wTVFH/6dqWn3fmbNuBLB+RoCAb8jt0KLVE2I7VdKfxfGLgYpu
raCzHGSL59m+4Gwv4xK2WUjafzQbYZ8ONZI7Um1zlT1KRGOwcWEgjVyRxW7WsNvl
NxnTn6OjEribhJuE3Owd/HD8i6y8VCaT37jHCr7tKaf5XcCLmExJ/lhLCvGzBQqX
Rg6h9E/TRZ1nB5CbCQxNGfqWuxldSwWy17YYmusnTgd1a/rYoThiq4EGzqasJ5Hf
RoKkaw6WLE8U2KLUSdQgjdb6Juz4rfcAeSWcGnbS/3qblm6WyEU3dYVWBqHcWATv
mo0CAwEAAaAAMA0GCSqGSIb3DQEBCwUAA4ICAQAeTHvStuLgpDfdEOgiQGt6D5Q1
mKL5TqwiMCgKsyJU/RyH7ERmprjXUhqlpyGYNIjLscH8uttKEd+5U5Jf/ndgJ/Nr
rpArqmpIHRhkEQ6Nqh86WK8esCvD+Fex2fT+6aG5/3AeVxnFeZRi9cPgWqbp1XaH
ahFLIYPIVifq3W61F7f+/PPRvkscWekFyUCw3i0xAqFTwR30GXz1UmQBlFGInTil
yQqsrEqucU4IqgqUK9Zq6tzEAbnpf9R7cLtWSfrCxOy5aycpbGBNciAUUlalDp/j
N1nUNvnEDsrrCgXcl2CLoG8jFBUCuOxnipKAlUXu0MunRW+V+ApzWOR/ShavY+kH
b4tHOpxfAX7/VxxN1HWrV7B1xXyxAfuvZL7YBZtNsOd2mpFjxLbcHkMR5op2M6Dy
3XnbDU3qkStwe0+3M4PEbWiHe6qrnmAuG3aGYVYO4meBB8PdwbxdpSA756mrBGQ9
DXlW3NkUEli3xRzOAaqiKP/tXTI3Iuk12v3QyPMmiq1aectXHZeyBOfRYWmKabKO
J7eN1YGFF+B0vpdoglBRcFaYl4O54uD8HGdHz538XCpbwY81rPFoyZlgAkR8BqMP
dJWnp+K4Ng5uVNHS7P9r3nZDxfjarZiImvg8YP12krxOVLq2byymUj1EFkg/Sdkr
70lRZA28a6GlBBjcbQ==
-----END CERTIFICATE REQUEST-----
